target datalayout = "e-m:e-p270:32:32-p271:32:32-p272:64:64-i64:64-i128:128-f80:128-n8:16:32:64-S128"
target triple = "x86_64-pc-linux-gnu"

%struct.simple8b_mode = type { i8, i8 }
%struct.IntegerSet = type { ptr, i64, i64, i64, i32, ptr, [11 x ptr], ptr, [482 x i64], i32, i8, ptr, i32, i32, ptr, i32, [241 x i64] }
%struct.leaf_item = type { i64, i64 }
%struct.intset_leaf_node = type { i16, i16, ptr, [64 x %struct.leaf_item] }

; Function Attrs: nounwind uwtable
define internal i32 @simple8b_decode(i64 noundef %0, ptr noundef %1, i64 noundef %2) #0 {
  %4 = alloca i32, align 4
  %5 = alloca i64, align 8
  %6 = alloca ptr, align 8
  %7 = alloca i64, align 8
  %8 = alloca i32, align 4
  %9 = alloca i32, align 4
  %10 = alloca i32, align 4
  %11 = alloca i64, align 8
  %12 = alloca i64, align 8
  %13 = alloca i32, align 4
  %14 = alloca i32, align 4
  %15 = alloca i64, align 8
  store i64 %0, ptr %5, align 8
  store ptr %1, ptr %6, align 8
  store i64 %2, ptr %7, align 8
  call void @llvm.lifetime.start.p0(i64 4, ptr %8) #6
  %16 = load i64, ptr %5, align 8
  %17 = lshr i64 %16, 60
  %18 = trunc i64 %17 to i32
  store i32 %18, ptr %8, align 4
  call void @llvm.lifetime.start.p0(i64 4, ptr %9) #6
  %19 = load i32, ptr %8, align 4
  %20 = sext i32 %19 to i64
  %21 = getelementptr inbounds [17 x %struct.simple8b_mode], ptr @simple8b_modes, i64 0, i64 %20
  %22 = getelementptr inbounds nuw %struct.simple8b_mode, ptr %21, i32 0, i32 1
  %23 = load i8, ptr %22, align 1
  %24 = zext i8 %23 to i32
  store i32 %24, ptr %9, align 4
  call void @llvm.lifetime.start.p0(i64 4, ptr %10) #6
  %25 = load i32, ptr %8, align 4
  %26 = sext i32 %25 to i64
  %27 = getelementptr inbounds [17 x %struct.simple8b_mode], ptr @simple8b_modes, i64 0, i64 %26
  %28 = getelementptr inbounds nuw %struct.simple8b_mode, ptr %27, i32 0, i32 0
  %29 = load i8, ptr %28, align 2
  %30 = zext i8 %29 to i32
  store i32 %30, ptr %10, align 4
  call void @llvm.lifetime.start.p0(i64 8, ptr %11) #6
  %31 = load i32, ptr %10, align 4
  %32 = zext i32 %31 to i64
  %33 = shl i64 1, %32
  %34 = sub i64 %33, 1
  store i64 %34, ptr %11, align 8
  call void @llvm.lifetime.start.p0(i64 8, ptr %12) #6
  %35 = load i64, ptr %5, align 8
  %36 = icmp eq i64 %35, 1152921504606846975
  br i1 %36, label %37, label %38

37:                                               ; preds = %3
  store i32 0, ptr %4, align 4
  store i32 1, ptr %13, align 4
  br label %67

38:                                               ; preds = %3
  %39 = load i64, ptr %7, align 8
  store i64 %39, ptr %12, align 8
  call void @llvm.lifetime.start.p0(i64 4, ptr %14) #6
  store i32 0, ptr %14, align 4
  br label %40

40:                                               ; preds = %62, %38
  %41 = load i32, ptr %14, align 4
  %42 = load i32, ptr %9, align 4
  %43 = icmp slt i32 %41, %42
  br i1 %43, label %45, label %44

44:                                               ; preds = %40
  store i32 2, ptr %13, align 4
  call void @llvm.lifetime.end.p0(i64 4, ptr %14) #6
  br label %65

45:                                               ; preds = %40
  call void @llvm.lifetime.start.p0(i64 8, ptr %15) #6
  %46 = load i64, ptr %5, align 8
  %47 = load i64, ptr %11, align 8
  %48 = and i64 %46, %47
  store i64 %48, ptr %15, align 8
  %49 = load i64, ptr %15, align 8
  %50 = add i64 1, %49
  %51 = load i64, ptr %12, align 8
  %52 = add i64 %51, %50
  store i64 %52, ptr %12, align 8
  %53 = load i64, ptr %12, align 8
  %54 = load ptr, ptr %6, align 8
  %55 = load i32, ptr %14, align 4
  %56 = sext i32 %55 to i64
  %57 = getelementptr inbounds i64, ptr %54, i64 %56
  store i64 %53, ptr %57, align 8
  %58 = load i32, ptr %10, align 4
  %59 = load i64, ptr %5, align 8
  %60 = zext i32 %58 to i64
  %61 = lshr i64 %59, %60
  store i64 %61, ptr %5, align 8
  call void @llvm.lifetime.end.p0(i64 8, ptr %15) #6
  br label %62

62:                                               ; preds = %45
  %63 = load i32, ptr %14, align 4
  %64 = add i32 %63, 1
  store i32 %64, ptr %14, align 4
  br label %40, !llvm.loop !12

65:                                               ; preds = %44
  %66 = load i32, ptr %9, align 4
  store i32 %66, ptr %4, align 4
  store i32 1, ptr %13, align 4
  br label %67

67:                                               ; preds = %65, %37
  call void @llvm.lifetime.end.p0(i64 8, ptr %12) #6
  call void @llvm.lifetime.end.p0(i64 8, ptr %11) #6
  call void @llvm.lifetime.end.p0(i64 4, ptr %10) #6
  call void @llvm.lifetime.end.p0(i64 4, ptr %9) #6
  call void @llvm.lifetime.end.p0(i64 4, ptr %8) #6
  %68 = load i32, ptr %4, align 4
  ret i32 %68
}

; Function Attrs: nounwind uwtable
define dso_local zeroext i1 @intset_iterate_next(ptr noundef %0, ptr noundef %1) #0 {
  %3 = alloca i1, align 1
  %4 = alloca ptr, align 8
  %5 = alloca ptr, align 8
  %6 = alloca ptr, align 8
  %7 = alloca i32, align 4
  store ptr %0, ptr %4, align 8
  store ptr %1, ptr %5, align 8
  br label %8

8:                                                ; preds = %100, %82, %44, %2
  %9 = load ptr, ptr %4, align 8
  %10 = getelementptr inbounds nuw %struct.IntegerSet, ptr %9, i32 0, i32 13
  %11 = load i32, ptr %10, align 4
  %12 = load ptr, ptr %4, align 8
  %13 = getelementptr inbounds nuw %struct.IntegerSet, ptr %12, i32 0, i32 12
  %14 = load i32, ptr %13, align 8
  %15 = icmp slt i32 %11, %14
  br i1 %15, label %16, label %28

16:                                               ; preds = %8
  %17 = load ptr, ptr %4, align 8
  %18 = getelementptr inbounds nuw %struct.IntegerSet, ptr %17, i32 0, i32 11
  %19 = load ptr, ptr %18, align 8
  %20 = load ptr, ptr %4, align 8
  %21 = getelementptr inbounds nuw %struct.IntegerSet, ptr %20, i32 0, i32 13
  %22 = load i32, ptr %21, align 4
  %23 = add i32 %22, 1
  store i32 %23, ptr %21, align 4
  %24 = sext i32 %22 to i64
  %25 = getelementptr inbounds i64, ptr %19, i64 %24
  %26 = load i64, ptr %25, align 8
  %27 = load ptr, ptr %5, align 8
  store i64 %26, ptr %27, align 8
  store i1 true, ptr %3, align 1
  br label %118

28:                                               ; preds = %8
  %29 = load ptr, ptr %4, align 8
  %30 = getelementptr inbounds nuw %struct.IntegerSet, ptr %29, i32 0, i32 14
  %31 = load ptr, ptr %30, align 8
  %32 = icmp ne ptr %31, null
  br i1 %32, label %33, label %77

33:                                               ; preds = %28
  %34 = load ptr, ptr %4, align 8
  %35 = getelementptr inbounds nuw %struct.IntegerSet, ptr %34, i32 0, i32 15
  %36 = load i32, ptr %35, align 8
  %37 = load ptr, ptr %4, align 8
  %38 = getelementptr inbounds nuw %struct.IntegerSet, ptr %37, i32 0, i32 14
  %39 = load ptr, ptr %38, align 8
  %40 = getelementptr inbounds nuw %struct.intset_leaf_node, ptr %39, i32 0, i32 1
  %41 = load i16, ptr %40, align 2
  %42 = zext i16 %41 to i32
  %43 = icmp slt i32 %36, %42
  br i1 %43, label %44, label %77

44:                                               ; preds = %33
  call void @llvm.lifetime.start.p0(i64 8, ptr %6) #6
  call void @llvm.lifetime.start.p0(i64 4, ptr %7) #6
  %45 = load ptr, ptr %4, align 8
  %46 = getelementptr inbounds nuw %struct.IntegerSet, ptr %45, i32 0, i32 14
  %47 = load ptr, ptr %46, align 8
  %48 = getelementptr inbounds nuw %struct.intset_leaf_node, ptr %47, i32 0, i32 3
  %49 = load ptr, ptr %4, align 8
  %50 = getelementptr inbounds nuw %struct.IntegerSet, ptr %49, i32 0, i32 15
  %51 = load i32, ptr %50, align 8
  %52 = add i32 %51, 1
  store i32 %52, ptr %50, align 8
  %53 = sext i32 %51 to i64
  %54 = getelementptr inbounds [64 x %struct.leaf_item], ptr %48, i64 0, i64 %53
  store ptr %54, ptr %6, align 8
  %55 = load ptr, ptr %6, align 8
  %56 = getelementptr inbounds nuw %struct.leaf_item, ptr %55, i32 0, i32 0
  %57 = load i64, ptr %56, align 8
  %58 = load ptr, ptr %4, align 8
  %59 = getelementptr inbounds nuw %struct.IntegerSet, ptr %58, i32 0, i32 16
  %60 = getelementptr inbounds [241 x i64], ptr %59, i64 0, i64 0
  store i64 %57, ptr %60, align 8
  %61 = load ptr, ptr %6, align 8
  %62 = getelementptr inbounds nuw %struct.leaf_item, ptr %61, i32 0, i32 1
  %63 = load i64, ptr %62, align 8
  %64 = load ptr, ptr %4, align 8
  %65 = getelementptr inbounds nuw %struct.IntegerSet, ptr %64, i32 0, i32 16
  %66 = getelementptr inbounds [241 x i64], ptr %65, i64 0, i64 1
  %67 = load ptr, ptr %6, align 8
  %68 = getelementptr inbounds nuw %struct.leaf_item, ptr %67, i32 0, i32 0
  %69 = load i64, ptr %68, align 8
  %70 = call i32 @simple8b_decode(i64 noundef %63, ptr noundef %66, i64 noundef %69)
  store i32 %70, ptr %7, align 4
  %71 = load i32, ptr %7, align 4
  %72 = add i32 %71, 1
  %73 = load ptr, ptr %4, align 8
  %74 = getelementptr inbounds nuw %struct.IntegerSet, ptr %73, i32 0, i32 12
  store i32 %72, ptr %74, align 8
  %75 = load ptr, ptr %4, align 8
  %76 = getelementptr inbounds nuw %struct.IntegerSet, ptr %75, i32 0, i32 13
  store i32 0, ptr %76, align 4
  call void @llvm.lifetime.end.p0(i64 4, ptr %7) #6
  call void @llvm.lifetime.end.p0(i64 8, ptr %6) #6
  br label %8

77:                                               ; preds = %33, %28
  %78 = load ptr, ptr %4, align 8
  %79 = getelementptr inbounds nuw %struct.IntegerSet, ptr %78, i32 0, i32 14
  %80 = load ptr, ptr %79, align 8
  %81 = icmp ne ptr %80, null
  br i1 %81, label %82, label %92

82:                                               ; preds = %77
  %83 = load ptr, ptr %4, align 8
  %84 = getelementptr inbounds nuw %struct.IntegerSet, ptr %83, i32 0, i32 14
  %85 = load ptr, ptr %84, align 8
  %86 = getelementptr inbounds nuw %struct.intset_leaf_node, ptr %85, i32 0, i32 2
  %87 = load ptr, ptr %86, align 8
  %88 = load ptr, ptr %4, align 8
  %89 = getelementptr inbounds nuw %struct.IntegerSet, ptr %88, i32 0, i32 14
  store ptr %87, ptr %89, align 8
  %90 = load ptr, ptr %4, align 8
  %91 = getelementptr inbounds nuw %struct.IntegerSet, ptr %90, i32 0, i32 15
  store i32 0, ptr %91, align 8
  br label %8

92:                                               ; preds = %77
  %93 = load ptr, ptr %4, align 8
  %94 = getelementptr inbounds nuw %struct.IntegerSet, ptr %93, i32 0, i32 11
  %95 = load ptr, ptr %94, align 8
  %96 = load ptr, ptr %4, align 8
  %97 = getelementptr inbounds nuw %struct.IntegerSet, ptr %96, i32 0, i32 16
  %98 = getelementptr inbounds [241 x i64], ptr %97, i64 0, i64 0
  %99 = icmp eq ptr %95, %98
  br i1 %99, label %100, label %113

100:                                              ; preds = %92
  %101 = load ptr, ptr %4, align 8
  %102 = getelementptr inbounds nuw %struct.IntegerSet, ptr %101, i32 0, i32 8
  %103 = getelementptr inbounds [482 x i64], ptr %102, i64 0, i64 0
  %104 = load ptr, ptr %4, align 8
  %105 = getelementptr inbounds nuw %struct.IntegerSet, ptr %104, i32 0, i32 11
  store ptr %103, ptr %105, align 8
  %106 = load ptr, ptr %4, align 8
  %107 = getelementptr inbounds nuw %struct.IntegerSet, ptr %106, i32 0, i32 9
  %108 = load i32, ptr %107, align 8
  %109 = load ptr, ptr %4, align 8
  %110 = getelementptr inbounds nuw %struct.IntegerSet, ptr %109, i32 0, i32 12
  store i32 %108, ptr %110, align 8
  %111 = load ptr, ptr %4, align 8
  %112 = getelementptr inbounds nuw %struct.IntegerSet, ptr %111, i32 0, i32 13
  store i32 0, ptr %112, align 4
  br label %8

113:                                              ; preds = %92
  br label %114

114:                                              ; preds = %113
  %115 = load ptr, ptr %4, align 8
  %116 = getelementptr inbounds nuw %struct.IntegerSet, ptr %115, i32 0, i32 10
  store i8 0, ptr %116, align 4
  %117 = load ptr, ptr %5, align 8
  store i64 0, ptr %117, align 8
  store i1 false, ptr %3, align 1
  br label %118

118:                                              ; preds = %114, %16
  %119 = load i1, ptr %3, align 1
  ret i1 %119
}