; Function Attrs: nofree norecurse nosync nounwind memory(read, argmem: readwrite, inaccessiblemem: none) uwtable
define dso_local noundef zeroext i1 @intset_iterate_next(ptr noundef %0, ptr noundef writeonly captures(none) %1) local_unnamed_addr #7 {
  %3 = getelementptr inbounds nuw i8, ptr %0, i64 4020
  %4 = getelementptr inbounds nuw i8, ptr %0, i64 4016
  %.promoted = load i32, ptr %3, align 4
  %.promoted41 = load i32, ptr %4, align 8
  %5 = icmp slt i32 %.promoted, %.promoted41
  br i1 %5, label %._crit_edge, label %.lr.ph

.lr.ph:                                           ; preds = %2
  %6 = getelementptr inbounds nuw i8, ptr %0, i64 4024
  %7 = getelementptr inbounds nuw i8, ptr %0, i64 4032
  %8 = getelementptr inbounds nuw i8, ptr %0, i64 4040
  %9 = getelementptr inbounds nuw i8, ptr %0, i64 4048
  %10 = getelementptr inbounds nuw i8, ptr %0, i64 4008
  %11 = getelementptr inbounds nuw i8, ptr %0, i64 144
  %12 = getelementptr inbounds nuw i8, ptr %0, i64 4000
  %.promoted44 = load ptr, ptr %6, align 8
  br label %19

._crit_edge:                                      ; preds = %.backedge, %.backedge.thread, %2
  %.lcssa37 = phi i32 [ %.promoted, %2 ], [ 0, %.backedge.thread ], [ %54, %.backedge ]
  %13 = getelementptr inbounds nuw i8, ptr %0, i64 4008
  %14 = load ptr, ptr %13, align 8
  %15 = add nsw i32 %.lcssa37, 1
  store i32 %15, ptr %3, align 4
  %16 = sext i32 %.lcssa37 to i64
  %17 = getelementptr inbounds i64, ptr %14, i64 %16
  %18 = load i64, ptr %17, align 8
  br label %66

19:                                               ; preds = %.lr.ph, %.backedge
  %20 = phi ptr [ %.promoted44, %.lr.ph ], [ %52, %.backedge ]
  %21 = phi i32 [ %.promoted, %.lr.ph ], [ %54, %.backedge ]
  %22 = phi i32 [ %.promoted41, %.lr.ph ], [ %53, %.backedge ]
  %.not = icmp eq ptr %20, null
  br i1 %.not, label %59, label %23

23:                                               ; preds = %19
  %24 = load i32, ptr %7, align 8
  %25 = getelementptr inbounds nuw i8, ptr %20, i64 2
  %26 = load i16, ptr %25, align 2
  %27 = zext i16 %26 to i32
  %28 = icmp slt i32 %24, %27
  br i1 %28, label %29, label %56

29:                                               ; preds = %23
  %30 = getelementptr inbounds nuw i8, ptr %20, i64 16
  %31 = add nsw i32 %24, 1
  store i32 %31, ptr %7, align 8
  %32 = sext i32 %24 to i64
  %33 = getelementptr inbounds [64 x %struct.leaf_item], ptr %30, i64 0, i64 %32
  %34 = load i64, ptr %33, align 8
  store i64 %34, ptr %8, align 8
  %35 = getelementptr inbounds nuw i8, ptr %33, i64 8
  %36 = load i64, ptr %35, align 8
  %37 = lshr i64 %36, 60
  %38 = getelementptr inbounds nuw [17 x %struct.simple8b_mode], ptr @simple8b_modes, i64 0, i64 %37
  %39 = getelementptr inbounds nuw i8, ptr %38, i64 1
  %40 = load i8, ptr %39, align 1
  %41 = load i8, ptr %38, align 2
  %42 = zext i8 %41 to i64
  %notmask.i = shl nsw i64 -1, %42
  %43 = xor i64 %notmask.i, -1
  %44 = icmp eq i64 %36, 1152921504606846975
  %.not.i = icmp eq i8 %40, 0
  %or.cond.i = select i1 %44, i1 true, i1 %.not.i
  br i1 %or.cond.i, label %.backedge.thread, label %.lr.ph.preheader.i

.lr.ph.preheader.i:                               ; preds = %29
  %wide.trip.count.i = zext i8 %40 to i64
  br label %.lr.ph.i

.lr.ph.i:                                         ; preds = %.lr.ph.i, %.lr.ph.preheader.i
  %indvars.iv.i = phi i64 [ 0, %.lr.ph.preheader.i ], [ %indvars.iv.next.i, %.lr.ph.i ]
  %.02025.i = phi i64 [ %34, %.lr.ph.preheader.i ], [ %47, %.lr.ph.i ]
  %.02124.i = phi i64 [ %36, %.lr.ph.preheader.i ], [ %49, %.lr.ph.i ]
  %45 = and i64 %.02124.i, %43
  %46 = add i64 %.02025.i, 1
  %47 = add i64 %46, %45
  %48 = getelementptr inbounds nuw i64, ptr %9, i64 %indvars.iv.i
  store i64 %47, ptr %48, align 8
  %49 = lshr i64 %.02124.i, %42
  %indvars.iv.next.i = add nuw nsw i64 %indvars.iv.i, 1
  %exitcond.not.i = icmp eq i64 %indvars.iv.next.i, %wide.trip.count.i
  br i1 %exitcond.not.i, label %simple8b_decode.exit.loopexit, label %.lr.ph.i, !llvm.loop !13

simple8b_decode.exit.loopexit:                    ; preds = %.lr.ph.i
  %50 = zext i8 %40 to i32
  %51 = add nuw nsw i32 %50, 1
  br label %.backedge.thread

.backedge.thread:                                 ; preds = %29, %simple8b_decode.exit.loopexit
  %.0.shrunk.i = phi i32 [ 1, %29 ], [ %51, %simple8b_decode.exit.loopexit ]
  store i32 %.0.shrunk.i, ptr %4, align 8
  br label %._crit_edge

.backedge:                                        ; preds = %56, %62
  %52 = phi ptr [ %58, %56 ], [ null, %62 ]
  %53 = phi i32 [ %22, %56 ], [ %63, %62 ]
  %54 = phi i32 [ %21, %56 ], [ 0, %62 ]
  %55 = icmp slt i32 %54, %53
  br i1 %55, label %._crit_edge, label %19

56:                                               ; preds = %23
  %57 = getelementptr inbounds nuw i8, ptr %20, i64 8
  %58 = load ptr, ptr %57, align 8
  store ptr %58, ptr %6, align 8
  store i32 0, ptr %7, align 8
  br label %.backedge

59:                                               ; preds = %19
  %60 = load ptr, ptr %10, align 8
  %61 = icmp eq ptr %60, %8
  br i1 %61, label %62, label %64

62:                                               ; preds = %59
  store ptr %11, ptr %10, align 8
  %63 = load i32, ptr %12, align 8
  store i32 %63, ptr %4, align 8
  store i32 0, ptr %3, align 4
  br label %.backedge

64:                                               ; preds = %59
  %65 = getelementptr inbounds nuw i8, ptr %0, i64 4004
  store i8 0, ptr %65, align 4
  br label %66

66:                                               ; preds = %64, %._crit_edge
  %67 = phi i1 [ false, %64 ], [ true, %._crit_edge ]
  %storemerge = phi i64 [ 0, %64 ], [ %18, %._crit_edge ]
  store i64 %storemerge, ptr %1, align 8
  ret i1 %67
}